(lp0
(dp1
S'commandList'
p2
(lp3
(dp4
S'type'
p5
cCommands
ColorTrackCommand
p6
sS'parameters'
p7
(dp8
S'cHue'
p9
F5.0
sS'hVal'
p10
F1.1647
sS'lVal'
p11
F0.62715
sS'hSat'
p12
F0.9301
sS'tHue'
p13
F30.0
sS'lSat'
p14
F0.50082
ssasg5
cEvents
InitEvent
p15
sg7
(dp16
sa(dp17
g2
(lp18
(dp19
g5
g6
sg7
(dp20
S'cHue'
p21
F6.0
sS'hVal'
p22
F1.18728
sS'lVal'
p23
F0.6393
sS'hSat'
p24
F0.69914
sS'tHue'
p25
F30.0
sS'lSat'
p26
F0.37646
ssasg5
cEvents
StepEvent
p27
sg7
(dp28
sa.