(lp0
(dp1
S'commandList'
p2
(lp3
(dp4
S'type'
p5
cCommands
ColorTrackCommand
p6
sS'parameters'
p7
(dp8
S'cHue'
p9
F4.0
sS'hVal'
p10
F1.216
sS'lVal'
p11
F0.65477
sS'hSat'
p12
F0.83875
sS'tHue'
p13
F30.0
sS'lSat'
p14
F0.45164
ssasg5
cEvents
StepEvent
p15
sg7
(dp16
sa.