(lp0
(dp1
S'commandList'
p2
(lp3
(dp4
S'type'
p5
cCommands
ColorTrackCommand
p6
sS'parameters'
p7
(dp8
S'cHue'
p9
F2.0
sS'hVal'
p10
F1.04117
sS'lVal'
p11
F0.56063
sS'hSat'
p12
F0.96437
sS'tHue'
p13
F30.0
sS'lSat'
p14
F0.51928
ssasg5
cEvents
StepEvent
p15
sg7
(dp16
sa.