(lp1
(dp2
S'str'
p3
I0
sS'hgt'
p4
I0
sS'rel'
p5
I00
sS'rot'
p6
I100
sa(dp7
g3
I100
sg4
I0
sg5
I00
sg6
I0
sa(dp8
g3
I0
sg4
I100
sg5
I00
sg6
I0
sa(dp9
g3
I1
sg4
I1
sg5
I00
sg6
I1
sa(dp10
g3
I0
sg4
I0
sg5
I00
sg6
I0
sa.