(dp0
S'robotID'
p1
S'COM9'
p2
sS'lastOpenedFile'
p3
csip
_unpickle_type
p4
(S'PyQt4.QtCore'
p5
S'QString'
p6
(VF:/Google Drive/Projects/Git Repositories/RobotGUIProgramming/RobotGUI/NewTask.task
p7
tp8
tp9
Rp10
sS'cameraID'
p11
I1
sS'motionCalibrations'
p12
(dp13
S'stationaryMovement'
p14
F2.1
sS'activeMovement'
p15
F39.8
ss.