(lp0
(dp1
S'commandList'
p2
(lp3
(dp4
S'type'
p5
cCommands
DetachCommand
p6
sS'parameters'
p7
(dp8
S'servo4'
p9
I00
sS'servo3'
p10
I00
sS'servo2'
p11
I01
sS'servo1'
p12
I01
ssasg5
cCommands
StepEvent
p13
sg7
(dp14
sa(dp15
g2
(lp16
(dp17
g5
cCommands
MoveXYZCommand
p18
sg7
(dp19
S'y'
p20
F-15.0
sS'x'
p21
F0.0
sS'z'
p22
F15.0
sS'rel'
p23
I00
ssasg5
cCommands
InitEvent
p24
sg7
(dp25
sa.