(lp0
(dp1
S'rel'
p2
I00
sS'y'
p3
F-10.0
sS'x'
p4
F0.0
sS'z'
p5
F6.5
sS'type'
p6
cCommands
MoveXYZCommand
p7
sa(dp8
g2
I01
sg3
F0.0
sg4
F0.0
sg5
F1.0
sg6
g7
sa(dp9
g2
I01
sg3
F0.0
sg4
F0.0
sg5
F1.0
sg6
g7
sa.